target datalayout = "e-m:e-p270:32:32-p271:32:32-p272:64:64-i64:64-i128:128-f80:128-n8:16:32:64-S128"
target triple = "x86_64-pc-linux-gnu"

%"class.std::__cxx11::basic_string" = type { %"struct.std::__cxx11::basic_string<char>::_Alloc_hider", i64, %union.anon }
%"struct.std::__cxx11::basic_string<char>::_Alloc_hider" = type { ptr }
%union.anon = type { i64, [8 x i8] }
%"struct.Luau::DifferResult" = type { %"class.std::optional" }
%"class.std::optional" = type { %"struct.std::_Optional_base" }
%"struct.std::_Optional_base" = type { %"struct.std::_Optional_payload" }
%"struct.std::_Optional_payload" = type { %"struct.std::_Optional_payload.base.36", [7 x i8] }
%"struct.std::_Optional_payload.base.36" = type { %"struct.std::_Optional_payload_base.base.35" }
%"struct.std::_Optional_payload_base.base.35" = type <{ %"union.std::_Optional_payload_base<Luau::DiffError>::_Storage", i8 }>
%"union.std::_Optional_payload_base<Luau::DiffError>::_Storage" = type { %"struct.Luau::DiffError" }
%"struct.Luau::DiffError" = type { i32, %"struct.Luau::DiffPath", %"struct.Luau::DiffPathNodeLeaf", %"struct.Luau::DiffPathNodeLeaf", %"class.std::__cxx11::basic_string", %"class.std::__cxx11::basic_string" }
%"struct.Luau::DiffPath" = type { %"class.std::vector" }
%"class.std::vector" = type { %"struct.std::_Vector_base" }
%"struct.std::_Vector_base" = type { %"struct.std::_Vector_base<Luau::DiffPathNode, std::allocator<Luau::DiffPathNode>>::_Vector_impl" }
%"struct.std::_Vector_base<Luau::DiffPathNode, std::allocator<Luau::DiffPathNode>>::_Vector_impl" = type { %"struct.std::_Vector_base<Luau::DiffPathNode, std::allocator<Luau::DiffPathNode>>::_Vector_impl_data" }
%"struct.std::_Vector_base<Luau::DiffPathNode, std::allocator<Luau::DiffPathNode>>::_Vector_impl_data" = type { ptr, ptr, ptr }
%"struct.Luau::DiffPathNodeLeaf" = type { %"class.std::optional.4", %"class.std::optional.9", %"class.std::optional.19", i8, [7 x i8], %"class.std::optional.27" }
%"class.std::optional.4" = type { %"struct.std::_Optional_base.5" }
%"struct.std::_Optional_base.5" = type { %"struct.std::_Optional_payload.7" }
%"struct.std::_Optional_payload.7" = type { %"struct.std::_Optional_payload_base.base", [7 x i8] }
%"struct.std::_Optional_payload_base.base" = type <{ %"union.std::_Optional_payload_base<const Luau::Type *>::_Storage", i8 }>
%"union.std::_Optional_payload_base<const Luau::Type *>::_Storage" = type { ptr }
%"class.std::optional.9" = type { %"struct.std::_Optional_base.10" }
%"struct.std::_Optional_base.10" = type { %"struct.std::_Optional_payload.12" }
%"struct.std::_Optional_payload.12" = type { %"struct.std::_Optional_payload.base.16", [7 x i8] }
%"struct.std::_Optional_payload.base.16" = type { %"struct.std::_Optional_payload_base.base.15" }
%"struct.std::_Optional_payload_base.base.15" = type <{ %"union.std::_Optional_payload_base<std::__cxx11::basic_string<char>>::_Storage", i8 }>
%"union.std::_Optional_payload_base<std::__cxx11::basic_string<char>>::_Storage" = type { %"class.std::__cxx11::basic_string" }
%"class.std::optional.19" = type { %"struct.std::_Optional_base.20" }
%"struct.std::_Optional_base.20" = type { %"struct.std::_Optional_payload.22" }
%"struct.std::_Optional_payload.22" = type { %"struct.std::_Optional_payload_base.base.24", [3 x i8] }
%"struct.std::_Optional_payload_base.base.24" = type <{ %"union.std::_Optional_payload_base<int>::_Storage", i8 }>
%"union.std::_Optional_payload_base<int>::_Storage" = type { i32 }
%"class.std::optional.27" = type { %"struct.std::_Optional_base.28" }
%"struct.std::_Optional_base.28" = type { %"struct.std::_Optional_payload.30" }
%"struct.std::_Optional_payload.30" = type { %"struct.std::_Optional_payload_base.base.32", [7 x i8] }
%"struct.std::_Optional_payload_base.base.32" = type <{ %"union.std::_Optional_payload_base<unsigned long>::_Storage", i8 }>
%"union.std::_Optional_payload_base<unsigned long>::_Storage" = type { i64 }
%"struct.std::_Optional_payload_base" = type <{ %"union.std::_Optional_payload_base<Luau::DiffError>::_Storage", i8, [7 x i8] }>

; Function Attrs: mustprogress nounwind uwtable
define linkonce_odr dso_local void @_ZNSt22_Optional_payload_baseIN4Luau9DiffErrorEE8_StorageIS1_Lb0EED2Ev(ptr noundef nonnull align 8 dereferenceable(272) %0) unnamed_addr #1 comdat align 2 {
  %2 = alloca ptr, align 8
  store ptr %0, ptr %2, align 8
  ret void
}

; Function Attrs: mustprogress nounwind uwtable
define linkonce_odr dso_local void @_ZNSt22_Optional_payload_baseIN4Luau9DiffErrorEED2Ev(ptr noundef nonnull align 8 dereferenceable(273) %0) unnamed_addr #1 comdat align 2 {
  %2 = alloca ptr, align 8
  store ptr %0, ptr %2, align 8
  %3 = load ptr, ptr %2, align 8
  %4 = getelementptr inbounds %"struct.std::_Optional_payload_base", ptr %3, i32 0, i32 0
  call void @_ZNSt22_Optional_payload_baseIN4Luau9DiffErrorEE8_StorageIS1_Lb0EED2Ev(ptr noundef nonnull align 8 dereferenceable(272) %4) #9
  ret void
}

; Function Attrs: mustprogress nounwind uwtable
define linkonce_odr dso_local void @_ZNSt22_Optional_payload_baseIN4Luau9DiffErrorEE10_M_destroyEv(ptr noundef nonnull align 8 dereferenceable(273) %0) #1 comdat align 2 {
  %2 = alloca ptr, align 8
  store ptr %0, ptr %2, align 8
  %3 = load ptr, ptr %2, align 8
  %4 = getelementptr inbounds %"struct.std::_Optional_payload_base", ptr %3, i32 0, i32 1
  store i8 0, ptr %4, align 8
  %5 = getelementptr inbounds %"struct.std::_Optional_payload_base", ptr %3, i32 0, i32 0
  call void @_ZN4Luau9DiffErrorD2Ev(ptr noundef nonnull align 8 dereferenceable(272) %5) #9
  ret void
}

; Function Attrs: mustprogress nounwind uwtable
define linkonce_odr dso_local void @_ZNSt17_Optional_payloadIN4Luau9DiffErrorELb1ELb0ELb0EED2Ev(ptr noundef nonnull align 8 dereferenceable(273) %0) unnamed_addr #1 comdat align 2 {
  %2 = alloca ptr, align 8
  store ptr %0, ptr %2, align 8
  %3 = load ptr, ptr %2, align 8
  call void @_ZNSt22_Optional_payload_baseIN4Luau9DiffErrorEED2Ev(ptr noundef nonnull align 8 dereferenceable(273) %3) #9
  ret void
}

; Function Attrs: mustprogress nounwind uwtable
define linkonce_odr dso_local void @_ZNSt22_Optional_payload_baseIN4Luau9DiffErrorEE8_M_resetEv(ptr noundef nonnull align 8 dereferenceable(273) %0) #1 comdat align 2 {
  %2 = alloca ptr, align 8
  store ptr %0, ptr %2, align 8
  %3 = load ptr, ptr %2, align 8
  %4 = getelementptr inbounds %"struct.std::_Optional_payload_base", ptr %3, i32 0, i32 1
  %5 = load i8, ptr %4, align 8
  %6 = trunc i8 %5 to i1
  br i1 %6, label %7, label %8

7:                                                ; preds = %1
  call void @_ZNSt22_Optional_payload_baseIN4Luau9DiffErrorEE10_M_destroyEv(ptr noundef nonnull align 8 dereferenceable(273) %3) #9
  br label %8

8:                                                ; preds = %7, %1
  ret void
}

; Function Attrs: mustprogress nounwind uwtable
define linkonce_odr dso_local void @_ZNSt17_Optional_payloadIN4Luau9DiffErrorELb0ELb0ELb0EED2Ev(ptr noundef nonnull align 8 dereferenceable(273) %0) unnamed_addr #1 comdat align 2 {
  %2 = alloca ptr, align 8
  store ptr %0, ptr %2, align 8
  %3 = load ptr, ptr %2, align 8
  call void @_ZNSt22_Optional_payload_baseIN4Luau9DiffErrorEE8_M_resetEv(ptr noundef nonnull align 8 dereferenceable(273) %3) #9
  call void @_ZNSt17_Optional_payloadIN4Luau9DiffErrorELb1ELb0ELb0EED2Ev(ptr noundef nonnull align 8 dereferenceable(273) %3) #9
  ret void
}

; Function Attrs: mustprogress nounwind uwtable
define linkonce_odr dso_local void @_ZNSt14_Optional_baseIN4Luau9DiffErrorELb0ELb0EED2Ev(ptr noundef nonnull align 8 dereferenceable(280) %0) unnamed_addr #1 comdat align 2 {
  %2 = alloca ptr, align 8
  store ptr %0, ptr %2, align 8
  %3 = load ptr, ptr %2, align 8
  %4 = getelementptr inbounds %"struct.std::_Optional_base", ptr %3, i32 0, i32 0
  call void @_ZNSt17_Optional_payloadIN4Luau9DiffErrorELb0ELb0ELb0EED2Ev(ptr noundef nonnull align 8 dereferenceable(273) %4) #9
  ret void
}

; Function Attrs: mustprogress nounwind uwtable
define linkonce_odr dso_local void @_ZNSt8optionalIN4Luau9DiffErrorEED2Ev(ptr noundef nonnull align 8 dereferenceable(280) %0) unnamed_addr #1 comdat align 2 {
  %2 = alloca ptr, align 8
  store ptr %0, ptr %2, align 8
  %3 = load ptr, ptr %2, align 8
  call void @_ZNSt14_Optional_baseIN4Luau9DiffErrorELb0ELb0EED2Ev(ptr noundef nonnull align 8 dereferenceable(280) %3) #9
  ret void
}

; Function Attrs: mustprogress nounwind uwtable
define linkonce_odr dso_local void @_ZN4Luau12DifferResultD2Ev(ptr noundef nonnull align 8 dereferenceable(280) %0) unnamed_addr #1 comdat align 2 {
  %2 = alloca ptr, align 8
  store ptr %0, ptr %2, align 8
  %3 = load ptr, ptr %2, align 8
  %4 = getelementptr inbounds %"struct.Luau::DifferResult", ptr %3, i32 0, i32 0
  call void @_ZNSt8optionalIN4Luau9DiffErrorEED2Ev(ptr noundef nonnull align 8 dereferenceable(280) %4) #9
  ret void
}

; Function Attrs: mustprogress uwtable
define dso_local void @_ZN4Luau4diffIPKNS_4TypeES3_EENSt7__cxx1112basic_stringIcSt11char_traitsIcESaIcEEET_T0_(ptr dead_on_unwind noalias writable sret(%"class.std::__cxx11::basic_string") align 8 %0, ptr noundef %1, ptr noundef %2) #4 personality ptr @__gxx_personality_v0 {
  %4 = alloca ptr, align 8
  %5 = alloca ptr, align 8
  %6 = alloca ptr, align 8
  %7 = alloca %"struct.Luau::DifferResult", align 8
  %8 = alloca ptr, align 8
  %9 = alloca i32, align 4
  store ptr %0, ptr %4, align 8
  store ptr %1, ptr %5, align 8
  store ptr %2, ptr %6, align 8
  %10 = load ptr, ptr %5, align 8
  %11 = load ptr, ptr %6, align 8
  call void @_ZN4Luau4diffEPKNS_4TypeES2_(ptr dead_on_unwind writable sret(%"struct.Luau::DifferResult") align 8 %7, ptr noundef %10, ptr noundef %11)
  invoke void @_ZN4Luau8toStringB5cxx11ERKNS_12DifferResultE(ptr dead_on_unwind writable sret(%"class.std::__cxx11::basic_string") align 8 %0, ptr noundef nonnull align 8 dereferenceable(280) %7)
          to label %12 unwind label %13

12:                                               ; preds = %3
  call void @_ZN4Luau12DifferResultD2Ev(ptr noundef nonnull align 8 dereferenceable(280) %7) #9
  ret void

13:                                               ; preds = %3
  %14 = landingpad { ptr, i32 }
          cleanup
  %15 = extractvalue { ptr, i32 } %14, 0
  store ptr %15, ptr %8, align 8
  %16 = extractvalue { ptr, i32 } %14, 1
  store i32 %16, ptr %9, align 4
  call void @_ZN4Luau12DifferResultD2Ev(ptr noundef nonnull align 8 dereferenceable(280) %7) #9
  br label %17

17:                                               ; preds = %13
  %18 = load ptr, ptr %8, align 8
  %19 = load i32, ptr %9, align 4
  %20 = insertvalue { ptr, i32 } poison, ptr %18, 0
  %21 = insertvalue { ptr, i32 } %20, i32 %19, 1
  resume { ptr, i32 } %21
}