; Function Attrs: mustprogress uwtable
define dso_local void @_ZN4Luau4diffIPKNS_4TypeES3_EENSt7__cxx1112basic_stringIcSt11char_traitsIcESaIcEEET_T0_(ptr dead_on_unwind noalias writable sret(%"class.std::__cxx11::basic_string") align 8 %0, ptr noundef %1, ptr noundef %2) local_unnamed_addr #3 personality ptr @__gxx_personality_v0 {
  %4 = alloca %"struct.Luau::DifferResult", align 8
  call void @_ZN4Luau4diffEPKNS_4TypeES2_(ptr dead_on_unwind nonnull writable sret(%"struct.Luau::DifferResult") align 8 %4, ptr noundef %1, ptr noundef %2)
  invoke void @_ZN4Luau8toStringB5cxx11ERKNS_12DifferResultE(ptr dead_on_unwind writable sret(%"class.std::__cxx11::basic_string") align 8 %0, ptr noundef nonnull align 8 dereferenceable(280) %4)
          to label %5 unwind label %10

5:                                                ; preds = %3
  %6 = getelementptr inbounds i8, ptr %4, i64 272
  %7 = load i8, ptr %6, align 8
  %8 = trunc i8 %7 to i1
  br i1 %8, label %9, label %_ZN4Luau12DifferResultD2Ev.exit

9:                                                ; preds = %5
  store i8 0, ptr %6, align 8
  call void @_ZN4Luau9DiffErrorD2Ev(ptr noundef nonnull align 8 dereferenceable(272) %4) #10
  br label %_ZN4Luau12DifferResultD2Ev.exit

_ZN4Luau12DifferResultD2Ev.exit:                  ; preds = %5, %9
  ret void

10:                                               ; preds = %3
  %11 = landingpad { ptr, i32 }
          cleanup
  %12 = getelementptr inbounds i8, ptr %4, i64 272
  %13 = load i8, ptr %12, align 8
  %14 = trunc i8 %13 to i1
  br i1 %14, label %15, label %_ZN4Luau12DifferResultD2Ev.exit3

15:                                               ; preds = %10
  store i8 0, ptr %12, align 8
  call void @_ZN4Luau9DiffErrorD2Ev(ptr noundef nonnull align 8 dereferenceable(272) %4) #10
  br label %_ZN4Luau12DifferResultD2Ev.exit3

_ZN4Luau12DifferResultD2Ev.exit3:                 ; preds = %10, %15
  resume { ptr, i32 } %11
}